#include <math.h>
#include <stdio.h>
#include <stdlib.h>
#include <string.h>

void main()
{
	char s[101],a[20][10]={0};
	int i,len,j,k;
	gets(s);
	len=strlen(s);
	j=k=0;
	for(i=0;i<len;i++)
	{   if(s[i]!=' ') a[k][i-j]=s[i];
		else {k++;j=i+1;}
	}
	for(k-1;k>0;k--)
		printf("%s ",a[k]);
	printf("%s",a[0]);
}