; ModuleID = 'source-C-CXX/22/149.c'
source_filename = "source-C-CXX/22/149.c"
target datalayout = "e-m:e-p270:32:32-p271:32:32-p272:64:64-i64:64-f80:128-n8:16:32:64-S128"
target triple = "x86_64-pc-linux-gnu"

@.str = private unnamed_addr constant [4 x i8] c"%s \00", align 1
@.str.1 = private unnamed_addr constant [3 x i8] c"%s\00", align 1

; Function Attrs: nounwind sspstrong uwtable
define dso_local void @main() local_unnamed_addr #0 {
  %1 = alloca [101 x i8], align 16
  %2 = alloca [20 x [10 x i8]], align 16
  %3 = getelementptr inbounds [101 x i8], [101 x i8]* %1, i64 0, i64 0
  call void @llvm.lifetime.start.p0i8(i64 101, i8* nonnull %3) #6
  %4 = getelementptr inbounds [20 x [10 x i8]], [20 x [10 x i8]]* %2, i64 0, i64 0, i64 0
  call void @llvm.lifetime.start.p0i8(i64 200, i8* nonnull %4) #6
  call void @llvm.memset.p0i8.i64(i8* noundef nonnull align 16 dereferenceable(200) %4, i8 0, i64 200, i1 false)
  %5 = call i32 (i8*, ...) bitcast (i32 (...)* @gets to i32 (i8*, ...)*)(i8* nonnull %3) #6
  %6 = call i64 @strlen(i8* noundef nonnull %3) #7
  %7 = trunc i64 %6 to i32
  %8 = icmp sgt i32 %7, 0
  br i1 %8, label %9, label %44

9:                                                ; preds = %0
  %10 = and i64 %6, 4294967295
  br label %15

11:                                               ; preds = %33
  %12 = icmp sgt i32 %36, 0
  br i1 %12, label %13, label %44

13:                                               ; preds = %11
  %14 = zext i32 %36 to i64
  br label %38

15:                                               ; preds = %9, %33
  %16 = phi i64 [ 0, %9 ], [ %34, %33 ]
  %17 = phi i32 [ 0, %9 ], [ %36, %33 ]
  %18 = phi i32 [ 0, %9 ], [ %35, %33 ]
  %19 = getelementptr inbounds [101 x i8], [101 x i8]* %1, i64 0, i64 %16
  %20 = load i8, i8* %19, align 1, !tbaa !5
  %21 = icmp eq i8 %20, 32
  br i1 %21, label %29, label %22

22:                                               ; preds = %15
  %23 = sext i32 %17 to i64
  %24 = trunc i64 %16 to i32
  %25 = sub nsw i32 %24, %18
  %26 = sext i32 %25 to i64
  %27 = getelementptr inbounds [20 x [10 x i8]], [20 x [10 x i8]]* %2, i64 0, i64 %23, i64 %26
  store i8 %20, i8* %27, align 1, !tbaa !5
  %28 = add nuw nsw i64 %16, 1
  br label %33

29:                                               ; preds = %15
  %30 = add nsw i32 %17, 1
  %31 = add nuw nsw i64 %16, 1
  %32 = trunc i64 %31 to i32
  br label %33

33:                                               ; preds = %22, %29
  %34 = phi i64 [ %28, %22 ], [ %31, %29 ]
  %35 = phi i32 [ %18, %22 ], [ %32, %29 ]
  %36 = phi i32 [ %17, %22 ], [ %30, %29 ]
  %37 = icmp eq i64 %34, %10
  br i1 %37, label %11, label %15, !llvm.loop !8

38:                                               ; preds = %13, %38
  %39 = phi i64 [ %14, %13 ], [ %43, %38 ]
  %40 = getelementptr inbounds [20 x [10 x i8]], [20 x [10 x i8]]* %2, i64 0, i64 %39, i64 0
  %41 = call i32 (i8*, ...) @printf(i8* nonnull dereferenceable(1) getelementptr inbounds ([4 x i8], [4 x i8]* @.str, i64 0, i64 0), i8* nonnull %40)
  %42 = icmp sgt i64 %39, 1
  %43 = add nsw i64 %39, -1
  br i1 %42, label %38, label %44, !llvm.loop !10

44:                                               ; preds = %38, %0, %11
  %45 = call i32 (i8*, ...) @printf(i8* nonnull dereferenceable(1) getelementptr inbounds ([3 x i8], [3 x i8]* @.str.1, i64 0, i64 0), i8* nonnull %4)
  call void @llvm.lifetime.end.p0i8(i64 200, i8* nonnull %4) #6
  call void @llvm.lifetime.end.p0i8(i64 101, i8* nonnull %3) #6
  ret void
}

; Function Attrs: argmemonly mustprogress nofree nosync nounwind willreturn
declare void @llvm.lifetime.start.p0i8(i64 immarg, i8* nocapture) #1

; Function Attrs: argmemonly mustprogress nofree nounwind willreturn writeonly
declare void @llvm.memset.p0i8.i64(i8* nocapture writeonly, i8, i64, i1 immarg) #2

declare i32 @gets(...) local_unnamed_addr #3

; Function Attrs: argmemonly mustprogress nofree nounwind readonly willreturn
declare i64 @strlen(i8* nocapture) local_unnamed_addr #4

; Function Attrs: nofree nounwind
declare noundef i32 @printf(i8* nocapture noundef readonly, ...) local_unnamed_addr #5

; Function Attrs: argmemonly mustprogress nofree nosync nounwind willreturn
declare void @llvm.lifetime.end.p0i8(i64 immarg, i8* nocapture) #1


!llvm.module.flags = !{!0, !1, !2, !3}
!llvm.ident = !{!4}

!0 = !{i32 1, !"wchar_size", i32 4}
!1 = !{i32 7, !"PIC Level", i32 2}
!2 = !{i32 7, !"PIE Level", i32 2}
!3 = !{i32 7, !"uwtable", i32 1}
!4 = !{!"clang version 13.0.0"}
!5 = !{!6, !6, i64 0}
!6 = !{!"omnipotent char", !7, i64 0}
!7 = !{!"Simple C/C++ TBAA"}
!8 = distinct !{!8, !9}
!9 = !{!"llvm.loop.mustprogress"}
!10 = distinct !{!10, !9}
